target datalayout = "e-m:e-p270:32:32-p271:32:32-p272:64:64-i64:64-i128:128-f80:128-n8:16:32:64-S128"
target triple = "x86_64-unknown-linux-gnu"

%"class.std::__cxx11::basic_string" = type { %"struct.std::__cxx11::basic_string<char>::_Alloc_hider", i64, %union.anon }
%"struct.std::__cxx11::basic_string<char>::_Alloc_hider" = type { ptr }
%union.anon = type { i64, [8 x i8] }
%"class.cvc5::parser::Smt2Parser" = type { %"class.cvc5::parser::Parser.base", [7 x i8], %"class.cvc5::parser::Smt2Lexer", %"class.cvc5::parser::Smt2State", %"class.cvc5::parser::Smt2TermParser", %"class.cvc5::parser::Smt2CmdParser" }
%"class.cvc5::parser::Parser.base" = type <{ %"class.cvc5::parser::ParserStateCallback", ptr, ptr, ptr, %"class.std::unique_ptr", i8 }>
%"class.cvc5::parser::ParserStateCallback" = type { ptr }
%"class.std::unique_ptr" = type { %"struct.std::__uniq_ptr_data" }
%"struct.std::__uniq_ptr_data" = type { %"class.std::__uniq_ptr_impl" }
%"class.std::__uniq_ptr_impl" = type { %"class.std::tuple" }
%"class.std::tuple" = type { %"struct.std::_Tuple_impl" }
%"struct.std::_Tuple_impl" = type { %"struct.std::_Head_base.1" }
%"struct.std::_Head_base.1" = type { ptr }
%"class.cvc5::parser::Smt2Lexer" = type <{ %"class.cvc5::parser::Lexer.base", [4 x i8], %"class.std::vector.5", i8, i8, %"struct.std::array", [6 x i8] }>
%"class.cvc5::parser::Lexer.base" = type <{ ptr, %"struct.cvc5::parser::Span", %"class.std::__cxx11::basic_string", %"class.std::vector", ptr, i8, [32768 x i8], [7 x i8], i64, i64, i32, i8, [3 x i8], i32 }>
%"struct.cvc5::parser::Span" = type { %"struct.cvc5::parser::Location", %"struct.cvc5::parser::Location" }
%"struct.cvc5::parser::Location" = type { i32, i32 }
%"class.std::vector" = type { %"struct.std::_Vector_base" }
%"struct.std::_Vector_base" = type { %"struct.std::_Vector_base<cvc5::parser::Token, std::allocator<cvc5::parser::Token>>::_Vector_impl" }
%"struct.std::_Vector_base<cvc5::parser::Token, std::allocator<cvc5::parser::Token>>::_Vector_impl" = type { %"struct.std::_Vector_base<cvc5::parser::Token, std::allocator<cvc5::parser::Token>>::_Vector_impl_data" }
%"struct.std::_Vector_base<cvc5::parser::Token, std::allocator<cvc5::parser::Token>>::_Vector_impl_data" = type { ptr, ptr, ptr }
%"class.std::vector.5" = type { %"struct.std::_Vector_base.6" }
%"struct.std::_Vector_base.6" = type { %"struct.std::_Vector_base<char, std::allocator<char>>::_Vector_impl" }
%"struct.std::_Vector_base<char, std::allocator<char>>::_Vector_impl" = type { %"struct.std::_Vector_base<char, std::allocator<char>>::_Vector_impl_data" }
%"struct.std::_Vector_base<char, std::allocator<char>>::_Vector_impl_data" = type { ptr, ptr, ptr }
%"struct.std::array" = type { [256 x i8] }
%"class.cvc5::parser::Smt2State" = type { %"class.cvc5::parser::ParserState", i8, i8, i8, %"class.cvc5::internal::LogicInfo", %"class.std::unordered_map", %"class.std::unordered_map", %"class.std::unordered_map", %"struct.std::pair", %"class.std::vector.30" }
%"class.cvc5::parser::ParserState" = type { ptr, ptr, ptr, ptr, ptr, i8, i8, i8, %"class.std::set", %"class.std::set.10", %"class.std::__cxx11::list" }
%"class.std::set" = type { %"class.std::_Rb_tree" }
%"class.std::_Rb_tree" = type { %"struct.std::_Rb_tree<cvc5::Kind, cvc5::Kind, std::_Identity<cvc5::Kind>, std::less<cvc5::Kind>>::_Rb_tree_impl" }
%"struct.std::_Rb_tree<cvc5::Kind, cvc5::Kind, std::_Identity<cvc5::Kind>, std::less<cvc5::Kind>>::_Rb_tree_impl" = type { %"struct.std::_Rb_tree_key_compare", %"struct.std::_Rb_tree_header" }
%"struct.std::_Rb_tree_key_compare" = type { %"struct.std::less" }
%"struct.std::less" = type { i8 }
%"struct.std::_Rb_tree_header" = type { %"struct.std::_Rb_tree_node_base", i64 }
%"struct.std::_Rb_tree_node_base" = type { i32, ptr, ptr, ptr }
%"class.std::set.10" = type { %"class.std::_Rb_tree.11" }
%"class.std::_Rb_tree.11" = type { %"struct.std::_Rb_tree<std::__cxx11::basic_string<char>, std::__cxx11::basic_string<char>, std::_Identity<std::__cxx11::basic_string<char>>, std::less<std::__cxx11::basic_string<char>>>::_Rb_tree_impl" }
%"struct.std::_Rb_tree<std::__cxx11::basic_string<char>, std::__cxx11::basic_string<char>, std::_Identity<std::__cxx11::basic_string<char>>, std::less<std::__cxx11::basic_string<char>>>::_Rb_tree_impl" = type { %"struct.std::_Rb_tree_key_compare.15", %"struct.std::_Rb_tree_header" }
%"struct.std::_Rb_tree_key_compare.15" = type { %"struct.std::less.16" }
%"struct.std::less.16" = type { i8 }
%"class.std::__cxx11::list" = type { %"class.std::__cxx11::_List_base" }
%"class.std::__cxx11::_List_base" = type { %"struct.std::__cxx11::_List_base<cvc5::parser::Command *, std::allocator<cvc5::parser::Command *>>::_List_impl" }
%"struct.std::__cxx11::_List_base<cvc5::parser::Command *, std::allocator<cvc5::parser::Command *>>::_List_impl" = type { %"struct.std::__detail::_List_node_header" }
%"struct.std::__detail::_List_node_header" = type { %"struct.std::__detail::_List_node_base", i64 }
%"struct.std::__detail::_List_node_base" = type { ptr, ptr }
%"class.cvc5::internal::LogicInfo" = type { %"class.std::__cxx11::basic_string", %"class.std::vector.21", i64, i8, i8, i8, i8, i8, i8, i8, i8 }
%"class.std::vector.21" = type { %"struct.std::_Bvector_base" }
%"struct.std::_Bvector_base" = type { %"struct.std::_Bvector_base<std::allocator<bool>>::_Bvector_impl" }
%"struct.std::_Bvector_base<std::allocator<bool>>::_Bvector_impl" = type { %"struct.std::_Bvector_base<std::allocator<bool>>::_Bvector_impl_data" }
%"struct.std::_Bvector_base<std::allocator<bool>>::_Bvector_impl_data" = type { %"struct.std::_Bit_iterator", %"struct.std::_Bit_iterator", ptr }
%"struct.std::_Bit_iterator" = type { %"struct.std::_Bit_iterator_base.base", [4 x i8] }
%"struct.std::_Bit_iterator_base.base" = type <{ ptr, i32 }>
%"class.std::unordered_map" = type { %"class.std::_Hashtable" }
%"class.std::_Hashtable" = type { ptr, i64, %"struct.std::__detail::_Hash_node_base", i64, %"struct.std::__detail::_Prime_rehash_policy", ptr }
%"struct.std::__detail::_Hash_node_base" = type { ptr }
%"struct.std::__detail::_Prime_rehash_policy" = type { float, i64 }
%"struct.std::pair" = type { %"class.cvc5::Term", %"class.std::__cxx11::basic_string" }
%"class.cvc5::Term" = type { ptr, %"class.std::shared_ptr" }
%"class.std::shared_ptr" = type { %"class.std::__shared_ptr" }
%"class.std::__shared_ptr" = type { ptr, %"class.std::__shared_count" }
%"class.std::__shared_count" = type { ptr }
%"class.std::vector.30" = type { %"struct.std::_Vector_base.31" }
%"struct.std::_Vector_base.31" = type { %"struct.std::_Vector_base<std::unique_ptr<cvc5::Grammar>, std::allocator<std::unique_ptr<cvc5::Grammar>>>::_Vector_impl" }
%"struct.std::_Vector_base<std::unique_ptr<cvc5::Grammar>, std::allocator<std::unique_ptr<cvc5::Grammar>>>::_Vector_impl" = type { %"struct.std::_Vector_base<std::unique_ptr<cvc5::Grammar>, std::allocator<std::unique_ptr<cvc5::Grammar>>>::_Vector_impl_data" }
%"struct.std::_Vector_base<std::unique_ptr<cvc5::Grammar>, std::allocator<std::unique_ptr<cvc5::Grammar>>>::_Vector_impl_data" = type { ptr, ptr, ptr }
%"class.cvc5::parser::Smt2TermParser" = type { ptr, ptr, ptr }
%"class.cvc5::parser::Smt2CmdParser" = type <{ ptr, ptr, ptr, ptr, %"class.std::map", i8, i8, [6 x i8] }>
%"class.std::map" = type { %"class.std::_Rb_tree.35" }
%"class.std::_Rb_tree.35" = type { %"struct.std::_Rb_tree<std::__cxx11::basic_string<char>, std::pair<const std::__cxx11::basic_string<char>, cvc5::parser::Token>, std::_Select1st<std::pair<const std::__cxx11::basic_string<char>, cvc5::parser::Token>>, std::less<std::__cxx11::basic_string<char>>>::_Rb_tree_impl" }
%"struct.std::_Rb_tree<std::__cxx11::basic_string<char>, std::pair<const std::__cxx11::basic_string<char>, cvc5::parser::Token>, std::_Select1st<std::pair<const std::__cxx11::basic_string<char>, cvc5::parser::Token>>, std::less<std::__cxx11::basic_string<char>>>::_Rb_tree_impl" = type { %"struct.std::_Rb_tree_key_compare.15", %"struct.std::_Rb_tree_header" }

; Function Attrs: mustprogress uwtable
define hidden void @_ZN4cvc56parser10Smt2Parser13parseNextTermEv(ptr noalias sret(%"class.cvc5::Term") align 8 %agg.result, ptr noundef nonnull align 8 dereferenceable(33856) %this) unnamed_addr #3 align 2 {
entry:
  %result.ptr = alloca ptr, align 8
  %this.addr = alloca ptr, align 8
  %tok = alloca i32, align 4
  store ptr %agg.result, ptr %result.ptr, align 8
  store ptr %this, ptr %this.addr, align 8
  %this1 = load ptr, ptr %this.addr, align 8
  %d_slex = getelementptr inbounds %"class.cvc5::parser::Smt2Parser", ptr %this1, i32 0, i32 2
  %call = call noundef i32 @_ZN4cvc56parser5Lexer9peekTokenEv(ptr noundef nonnull align 8 dereferenceable(32892) %d_slex)
  store i32 %call, ptr %tok, align 4
  %0 = load i32, ptr %tok, align 4
  %cmp = icmp eq i32 %0, 0
  br i1 %cmp, label %if.then, label %if.end

if.then:                                          ; preds = %entry
  call void @_ZN4cvc54TermC1Ev(ptr noundef nonnull align 8 dereferenceable(24) %agg.result)
  br label %return

if.end:                                           ; preds = %entry
  %d_state = getelementptr inbounds %"class.cvc5::parser::Smt2Parser", ptr %this1, i32 0, i32 3
  call void @_ZN4cvc56parser9Smt2State19checkThatLogicIsSetEv(ptr noundef nonnull align 8 dereferenceable(512) %d_state)
  %d_termParser = getelementptr inbounds %"class.cvc5::parser::Smt2Parser", ptr %this1, i32 0, i32 4
  call void @_ZN4cvc56parser14Smt2TermParser9parseTermEv(ptr sret(%"class.cvc5::Term") align 8 %agg.result, ptr noundef nonnull align 8 dereferenceable(24) %d_termParser)
  br label %return

return:                                           ; preds = %if.end, %if.then
  ret void
}