; Function Attrs: mustprogress uwtable
define hidden void @_ZN4cvc56parser10Smt2Parser13parseNextTermEv(ptr noalias sret(%"class.cvc5::Term") align 8 %agg.result, ptr noundef nonnull align 8 dereferenceable(33856) %this) unnamed_addr #4 align 2 {
entry:
  %d_slex = getelementptr inbounds i8, ptr %this, i64 48
  %call = tail call noundef i32 @_ZN4cvc56parser5Lexer9peekTokenEv(ptr noundef nonnull align 8 dereferenceable(32892) %d_slex)
  %cmp = icmp eq i32 %call, 0
  br i1 %cmp, label %if.then, label %if.end

if.then:                                          ; preds = %entry
  tail call void @_ZN4cvc54TermC1Ev(ptr noundef nonnull align 8 dereferenceable(24) %agg.result)
  br label %return

if.end:                                           ; preds = %entry
  %d_state = getelementptr inbounds i8, ptr %this, i64 33232
  tail call void @_ZN4cvc56parser9Smt2State19checkThatLogicIsSetEv(ptr noundef nonnull align 8 dereferenceable(512) %d_state)
  %d_termParser = getelementptr inbounds i8, ptr %this, i64 33744
  tail call void @_ZN4cvc56parser14Smt2TermParser9parseTermEv(ptr sret(%"class.cvc5::Term") align 8 %agg.result, ptr noundef nonnull align 8 dereferenceable(24) %d_termParser)
  br label %return

return:                                           ; preds = %if.end, %if.then
  ret void
}